   1               		.file	"main.c"
   2               	__SREG__ = 0x3f
   3               	__SP_H__ = 0x3e
   4               	__SP_L__ = 0x3d
   5               	__CCP__ = 0x34
   6               	__tmp_reg__ = 0
   7               	__zero_reg__ = 1
   8               		.global __do_copy_data
   9               		.global __do_clear_bss
  10               		.section	.text.Setup_DDR,"ax",@progbits
  11               	.global	Setup_DDR
  13               	Setup_DDR:
  14               	/* prologue: function */
  15               	/* frame size = 0 */
  16               	/* stack size = 0 */
  17               	.L__stack_usage = 0
  18 0000 8DE0      		ldi r24,lo8(13)
  19 0002 E0E8      		ldi r30,lo8(1664)
  20 0004 F6E0      		ldi r31,hi8(1664)
  21 0006 8183      		std Z+1,r24
  22 0008 85E0      		ldi r24,lo8(5)
  23 000a E0E2      		ldi r30,lo8(1568)
  24 000c F6E0      		ldi r31,hi8(1568)
  25 000e 8183      		std Z+1,r24
  26 0010 8FE0      		ldi r24,lo8(15)
  27 0012 E0E6      		ldi r30,lo8(1632)
  28 0014 F6E0      		ldi r31,hi8(1632)
  29 0016 8183      		std Z+1,r24
  30 0018 83E0      		ldi r24,lo8(3)
  31 001a E0E0      		ldi r30,lo8(1536)
  32 001c F6E0      		ldi r31,hi8(1536)
  33 001e 8283      		std Z+2,r24
  34               	/* epilogue start */
  35 0020 0895      		ret
  37               		.section	.text.Setup_TWIC,"ax",@progbits
  38               	.global	Setup_TWIC
  40               	Setup_TWIC:
  41               	/* prologue: function */
  42               	/* frame size = 0 */
  43               	/* stack size = 0 */
  44               	.L__stack_usage = 0
  45               	/* epilogue start */
  46 0000 0895      		ret
  48               		.section	.text.pop_buffer,"ax",@progbits
  49               	.global	pop_buffer
  51               	pop_buffer:
  52               	/* prologue: function */
  53               	/* frame size = 0 */
  54               	/* stack size = 0 */
  55               	.L__stack_usage = 0
  56 0000 FC01      		movw r30,r24
  57 0002 E60F      		add r30,r22
  58 0004 F11D      		adc r31,__zero_reg__
  59 0006 8081      		ld r24,Z
  60               	/* epilogue start */
  61 0008 0895      		ret
  63               		.section	.text.push_buffer,"ax",@progbits
  64               	.global	push_buffer
  66               	push_buffer:
  67               	/* prologue: function */
  68               	/* frame size = 0 */
  69               	/* stack size = 0 */
  70               	.L__stack_usage = 0
  71 0000 FC01      		movw r30,r24
  72 0002 E60F      		add r30,r22
  73 0004 F11D      		adc r31,__zero_reg__
  74 0006 4083      		st Z,r20
  75               	/* epilogue start */
  76 0008 0895      		ret
  78               		.section	.text.compare_buffer,"ax",@progbits
  79               	.global	compare_buffer
  81               	compare_buffer:
  82               	/* prologue: function */
  83               	/* frame size = 0 */
  84               	/* stack size = 0 */
  85               	.L__stack_usage = 0
  86 0000 FC01      		movw r30,r24
  87 0002 8081      		ld r24,Z
  88 0004 8823      		tst r24
  89 0006 01F0      		breq .L8
  90               	.L9:
  91 0008 FB01      		movw r30,r22
  92 000a 9081      		ld r25,Z
  93 000c 8917      		cp r24,r25
  94 000e 01F0      		breq .L9
  95 0010 81E0      		ldi r24,lo8(1)
  96 0012 0895      		ret
  97               	.L8:
  98 0014 80E0      		ldi r24,lo8(0)
  99 0016 0895      		ret
 101               		.section	.text.next_mode,"ax",@progbits
 102               	.global	next_mode
 104               	next_mode:
 105               	/* prologue: function */
 106               	/* frame size = 0 */
 107               	/* stack size = 0 */
 108               	.L__stack_usage = 0
 109 0000 8091 0000 		lds r24,mode
 110 0004 8F5F      		subi r24,lo8(-(1))
 111 0006 8093 0000 		sts mode,r24
 112 000a 8430      		cpi r24,lo8(4)
 113 000c 00F0      		brlo .L11
 114 000e 1092 0000 		sts mode,__zero_reg__
 115               	.L11:
 116 0012 0895      		ret
 118               		.section	.text.set_mode,"ax",@progbits
 119               	.global	set_mode
 121               	set_mode:
 122               	/* prologue: function */
 123               	/* frame size = 0 */
 124               	/* stack size = 0 */
 125               	.L__stack_usage = 0
 126 0000 FC01      		movw r30,r24
 127 0002 8BEA      		ldi r24,lo8(-85)
 128 0004 8083      		st Z,r24
 129 0006 8091 0000 		lds r24,mode
 130 000a 8823      		tst r24
 131 000c 01F4      		brne .L14
 132 000e 8CEB      		ldi r24,lo8(-68)
 133 0010 8183      		std Z+1,r24
 134 0012 8AEB      		ldi r24,lo8(-70)
 135 0014 8383      		std Z+3,r24
 136 0016 0895      		ret
 137               	.L14:
 138 0018 8130      		cpi r24,lo8(1)
 139 001a 01F4      		brne .L13
 140 001c 8BEC      		ldi r24,lo8(-53)
 141 001e 8183      		std Z+1,r24
 142 0020 DF01      		movw r26,r30
 143 0022 1296      		adiw r26,2
 144 0024 87E0      		ldi r24,lo8(7)
 145               	.L16:
 146 0026 8D93      		st X+,r24
 147 0028 895F      		subi r24,lo8(-(7))
 148 002a 873E      		cpi r24,lo8(-25)
 149 002c 01F4      		brne .L16
 150 002e 8AEB      		ldi r24,lo8(-70)
 151 0030 82A3      		std Z+34,r24
 152               	.L13:
 153 0032 0895      		ret
 155               		.section	.text.checkbutton,"ax",@progbits
 156               	.global	checkbutton
 158               	checkbutton:
 159 0000 EF92      		push r14
 160 0002 FF92      		push r15
 161 0004 1F93      		push r17
 162 0006 CF93      		push r28
 163 0008 DF93      		push r29
 164               	/* prologue: function */
 165               	/* frame size = 0 */
 166               	/* stack size = 5 */
 167               	.L__stack_usage = 5
 168 000a 7C01      		movw r14,r24
 169 000c EB01      		movw r28,r22
 170 000e 0E94 0000 		call Read_Buttons
 171 0012 182F      		mov r17,r24
 172 0014 90E0      		ldi r25,lo8(0)
 173 0016 9C01      		movw r18,r24
 174 0018 207F      		andi r18,lo8(240)
 175 001a 3070      		andi r19,hi8(240)
 176 001c 2115      		cp r18,__zero_reg__
 177 001e 3105      		cpc r19,__zero_reg__
 178 0020 01F0      		breq .L19
 179 0022 85FF      		sbrs r24,5
 180 0024 00C0      		rjmp .L20
 181 0026 1092 0000 		sts mode,__zero_reg__
 182 002a 83E2      		ldi r24,lo8(35)
 183 002c 00C0      		rjmp .L29
 184               	.L20:
 185 002e 17FF      		sbrs r17,7
 186 0030 00C0      		rjmp .L22
 187 0032 1092 0000 		sts mode,__zero_reg__
 188 0036 8CE6      		ldi r24,lo8(108)
 189 0038 00C0      		rjmp .L29
 190               	.L22:
 191 003a 84FF      		sbrs r24,4
 192 003c 00C0      		rjmp .L23
 193 003e 1092 0000 		sts mode,__zero_reg__
 194 0042 84EB      		ldi r24,lo8(-76)
 195 0044 00C0      		rjmp .L29
 196               	.L23:
 197 0046 86FF      		sbrs r24,6
 198 0048 00C0      		rjmp .L21
 199 004a 1092 0000 		sts mode,__zero_reg__
 200 004e 82E3      		ldi r24,lo8(50)
 201               	.L29:
 202 0050 8A83      		std Y+2,r24
 203               	.L21:
 204 0052 CE01      		movw r24,r28
 205 0054 64E0      		ldi r22,lo8(4)
 206 0056 70E0      		ldi r23,hi8(4)
 207 0058 0E94 0000 		call usart_send_string
 208 005c 8FE3      		 ldi r24,lo8(-25537)
 209 005e 9CE9      	    ldi r25,hi8(-25537)
 210 0060 0197      	    1:sbiw r24,1
 211 0062 01F4      	    brne 1b
 212 0064 00C0      		rjmp .
 213 0066 0000      		nop
 214               	.L19:
 215 0068 1370      		andi r17,lo8(3)
 216 006a F701      		movw r30,r14
 217 006c 1183      		std Z+1,r17
 218 006e 9081      		ld r25,Z
 219 0070 9370      		andi r25,lo8(3)
 220 0072 9330      		cpi r25,lo8(3)
 221 0074 01F4      		brne .L24
 222 0076 812F      		mov r24,r17
 223 0078 90E0      		ldi r25,lo8(0)
 224 007a 8230      		cpi r24,2
 225 007c 9105      		cpc r25,__zero_reg__
 226 007e 01F4      		brne .L25
 227 0080 8A81      		ldd r24,Y+2
 228 0082 8F5F      		subi r24,lo8(-(1))
 229 0084 8A83      		std Y+2,r24
 230 0086 8D3F      		cpi r24,lo8(-3)
 231 0088 00F0      		brlo .L26
 232 008a 8CEF      		ldi r24,lo8(-4)
 233 008c 00C0      		rjmp .L31
 234               	.L26:
 235 008e CE01      		movw r24,r28
 236 0090 64E0      		ldi r22,lo8(4)
 237 0092 70E0      		ldi r23,hi8(4)
 238 0094 0E94 0000 		call usart_send_string
 239 0098 8FE3      		 ldi r24,lo8(-25537)
 240 009a 9CE9      	    ldi r25,hi8(-25537)
 241 009c 0197      	    1:sbiw r24,1
 242 009e 01F4      	    brne 1b
 243 00a0 00C0      		rjmp .L30
 244               	.L25:
 245 00a2 8130      		cpi r24,1
 246 00a4 9105      		cpc r25,__zero_reg__
 247 00a6 01F4      		brne .L24
 248 00a8 8A81      		ldd r24,Y+2
 249 00aa 8150      		subi r24,lo8(-(-1))
 250 00ac 8A83      		std Y+2,r24
 251 00ae 8823      		tst r24
 252 00b0 01F4      		brne .L28
 253 00b2 81E0      		ldi r24,lo8(1)
 254               	.L31:
 255 00b4 8A83      		std Y+2,r24
 256 00b6 00C0      		rjmp .L18
 257               	.L28:
 258 00b8 CE01      		movw r24,r28
 259 00ba 64E0      		ldi r22,lo8(4)
 260 00bc 70E0      		ldi r23,hi8(4)
 261 00be 0E94 0000 		call usart_send_string
 262 00c2 EFE3      		 ldi r30,lo8(-25537)
 263 00c4 FCE9      	    ldi r31,hi8(-25537)
 264 00c6 3197      	    1:sbiw r30,1
 265 00c8 01F4      	    brne 1b
 266               	.L30:
 267 00ca 00C0      		rjmp .
 268 00cc 0000      		nop
 269               	.L24:
 270 00ce F701      		movw r30,r14
 271 00d0 8181      		ldd r24,Z+1
 272 00d2 8083      		st Z,r24
 273               	.L18:
 274               	/* epilogue start */
 275 00d4 DF91      		pop r29
 276 00d6 CF91      		pop r28
 277 00d8 1F91      		pop r17
 278 00da FF90      		pop r15
 279 00dc EF90      		pop r14
 280 00de 0895      		ret
 282               		.section	.text.startup.main,"ax",@progbits
 283               	.global	main
 285               	main:
 286 0000 CF93      		push r28
 287 0002 DF93      		push r29
 288 0004 CDB7      		in r28,__SP_L__
 289 0006 DEB7      		in r29,__SP_H__
 290 0008 E497      		sbiw r28,52
 291 000a CDBF      		out __SP_L__,r28
 292 000c DEBF      		out __SP_H__,r29
 293               	/* prologue: function */
 294               	/* frame size = 52 */
 295               	/* stack size = 54 */
 296               	.L__stack_usage = 54
 297 000e 0E94 0000 		call setClockTo32MHz
 298 0012 8FEF      		 ldi r24,lo8(1279999)
 299 0014 97E8      	    ldi r25,hi8(1279999)
 300 0016 A3E1      	    ldi r26,hlo8(1279999)
 301 0018 8150      	    1:subi r24,1
 302 001a 9040      	    sbci r25,0
 303 001c A040      	    sbci r26,0
 304 001e 01F4      	    brne 1b
 305 0020 00C0      		rjmp .
 306 0022 0000      		nop
 307 0024 0E94 0000 		call Setup_DDR
 308 0028 0E94 0000 		call Setup_SPIC
 309 002c 0E94 0000 		call Setup_SPID
 310 0030 0E94 0000 		call Setup_USARTC
 311 0034 8FEF      		 ldi r24,lo8(1279999)
 312 0036 97E8      	    ldi r25,hi8(1279999)
 313 0038 A3E1      	    ldi r26,hlo8(1279999)
 314 003a 8150      	    1:subi r24,1
 315 003c 9040      	    sbci r25,0
 316 003e A040      	    sbci r26,0
 317 0040 01F4      	    brne 1b
 318 0042 00C0      		rjmp .
 319 0044 0000      		nop
 320 0046 8FEF      		 ldi r24,lo8(1279999)
 321 0048 97E8      	    ldi r25,hi8(1279999)
 322 004a A3E1      	    ldi r26,hlo8(1279999)
 323 004c 8150      	    1:subi r24,1
 324 004e 9040      	    sbci r25,0
 325 0050 A040      	    sbci r26,0
 326 0052 01F4      	    brne 1b
 327 0054 00C0      		rjmp .
 328 0056 0000      		nop
 329 0058 8BEA      		ldi r24,lo8(-85)
 330 005a 8B83      		std Y+3,r24
 331 005c 9CEB      		ldi r25,lo8(-68)
 332 005e 9C83      		std Y+4,r25
 333 0060 8D83      		std Y+5,r24
 334 0062 8AEB      		ldi r24,lo8(-70)
 335 0064 8E83      		std Y+6,r24
 336               	.L33:
 337 0066 CE01      		movw r24,r28
 338 0068 0196      		adiw r24,1
 339 006a BE01      		movw r22,r28
 340 006c 6D5F      		subi r22,lo8(-(3))
 341 006e 7F4F      		sbci r23,hi8(-(3))
 342 0070 0E94 0000 		call checkbutton
 343 0074 00C0      		rjmp .L33
 345               	.global	mode
 346               	.global	mode
 347               		.section .bss
 350               	mode:
 351 0000 00        		.skip 1,0
DEFINED SYMBOLS
                            *ABS*:00000000 main.c
/var/folders/5w/yy1wvsvs3qlc3rl7_n518bq80000gr/T//ccsZPCoj.s:2      *ABS*:0000003f __SREG__
/var/folders/5w/yy1wvsvs3qlc3rl7_n518bq80000gr/T//ccsZPCoj.s:3      *ABS*:0000003e __SP_H__
/var/folders/5w/yy1wvsvs3qlc3rl7_n518bq80000gr/T//ccsZPCoj.s:4      *ABS*:0000003d __SP_L__
/var/folders/5w/yy1wvsvs3qlc3rl7_n518bq80000gr/T//ccsZPCoj.s:5      *ABS*:00000034 __CCP__
/var/folders/5w/yy1wvsvs3qlc3rl7_n518bq80000gr/T//ccsZPCoj.s:6      *ABS*:00000000 __tmp_reg__
/var/folders/5w/yy1wvsvs3qlc3rl7_n518bq80000gr/T//ccsZPCoj.s:7      *ABS*:00000001 __zero_reg__
/var/folders/5w/yy1wvsvs3qlc3rl7_n518bq80000gr/T//ccsZPCoj.s:13     .text.Setup_DDR:00000000 Setup_DDR
/var/folders/5w/yy1wvsvs3qlc3rl7_n518bq80000gr/T//ccsZPCoj.s:40     .text.Setup_TWIC:00000000 Setup_TWIC
/var/folders/5w/yy1wvsvs3qlc3rl7_n518bq80000gr/T//ccsZPCoj.s:51     .text.pop_buffer:00000000 pop_buffer
/var/folders/5w/yy1wvsvs3qlc3rl7_n518bq80000gr/T//ccsZPCoj.s:66     .text.push_buffer:00000000 push_buffer
/var/folders/5w/yy1wvsvs3qlc3rl7_n518bq80000gr/T//ccsZPCoj.s:81     .text.compare_buffer:00000000 compare_buffer
/var/folders/5w/yy1wvsvs3qlc3rl7_n518bq80000gr/T//ccsZPCoj.s:104    .text.next_mode:00000000 next_mode
/var/folders/5w/yy1wvsvs3qlc3rl7_n518bq80000gr/T//ccsZPCoj.s:350    .bss:00000000 mode
/var/folders/5w/yy1wvsvs3qlc3rl7_n518bq80000gr/T//ccsZPCoj.s:121    .text.set_mode:00000000 set_mode
/var/folders/5w/yy1wvsvs3qlc3rl7_n518bq80000gr/T//ccsZPCoj.s:158    .text.checkbutton:00000000 checkbutton
/var/folders/5w/yy1wvsvs3qlc3rl7_n518bq80000gr/T//ccsZPCoj.s:285    .text.startup.main:00000000 main

UNDEFINED SYMBOLS
__do_copy_data
__do_clear_bss
Read_Buttons
usart_send_string
setClockTo32MHz
Setup_SPIC
Setup_SPID
Setup_USARTC
