
main.elf:     file format elf32-avr

Sections:
Idx Name          Size      VMA       LMA       File off  Algn
  0 .data         00000000  00800100  000004ae  00000542  2**0
                  CONTENTS, ALLOC, LOAD, DATA
  1 .text         000004ae  00000000  00000000  00000094  2**1
                  CONTENTS, ALLOC, LOAD, READONLY, CODE
  2 .bss          00000033  00800100  00800100  00000542  2**0
                  ALLOC
  3 .stab         000006cc  00000000  00000000  00000544  2**2
                  CONTENTS, READONLY, DEBUGGING
  4 .stabstr      00000081  00000000  00000000  00000c10  2**0
                  CONTENTS, READONLY, DEBUGGING
  5 .debug_aranges 00000060  00000000  00000000  00000c98  2**3
                  CONTENTS, READONLY, DEBUGGING
  6 .debug_info   00000240  00000000  00000000  00000cf8  2**0
                  CONTENTS, READONLY, DEBUGGING
  7 .debug_abbrev 0000003c  00000000  00000000  00000f38  2**0
                  CONTENTS, READONLY, DEBUGGING
  8 .debug_line   00000123  00000000  00000000  00000f74  2**0
                  CONTENTS, READONLY, DEBUGGING

Disassembly of section .text:

00000000 <__vectors>:
   0:	55 c0       	rjmp	.+170    	; 0xac <__ctors_end>
   2:	00 00       	nop
   4:	6e c0       	rjmp	.+220    	; 0xe2 <__bad_interrupt>
   6:	00 00       	nop
   8:	6c c0       	rjmp	.+216    	; 0xe2 <__bad_interrupt>
   a:	00 00       	nop
   c:	6a c0       	rjmp	.+212    	; 0xe2 <__bad_interrupt>
   e:	00 00       	nop
  10:	68 c0       	rjmp	.+208    	; 0xe2 <__bad_interrupt>
  12:	00 00       	nop
  14:	66 c0       	rjmp	.+204    	; 0xe2 <__bad_interrupt>
  16:	00 00       	nop
  18:	64 c0       	rjmp	.+200    	; 0xe2 <__bad_interrupt>
  1a:	00 00       	nop
  1c:	62 c0       	rjmp	.+196    	; 0xe2 <__bad_interrupt>
  1e:	00 00       	nop
  20:	60 c0       	rjmp	.+192    	; 0xe2 <__bad_interrupt>
  22:	00 00       	nop
  24:	5e c0       	rjmp	.+188    	; 0xe2 <__bad_interrupt>
  26:	00 00       	nop
  28:	5c c0       	rjmp	.+184    	; 0xe2 <__bad_interrupt>
  2a:	00 00       	nop
  2c:	5a c0       	rjmp	.+180    	; 0xe2 <__bad_interrupt>
  2e:	00 00       	nop
  30:	58 c0       	rjmp	.+176    	; 0xe2 <__bad_interrupt>
  32:	00 00       	nop
  34:	56 c0       	rjmp	.+172    	; 0xe2 <__bad_interrupt>
  36:	00 00       	nop
  38:	54 c0       	rjmp	.+168    	; 0xe2 <__bad_interrupt>
  3a:	00 00       	nop
  3c:	52 c0       	rjmp	.+164    	; 0xe2 <__bad_interrupt>
  3e:	00 00       	nop
  40:	50 c0       	rjmp	.+160    	; 0xe2 <__bad_interrupt>
  42:	00 00       	nop
  44:	4e c0       	rjmp	.+156    	; 0xe2 <__bad_interrupt>
  46:	00 00       	nop
  48:	4c c0       	rjmp	.+152    	; 0xe2 <__bad_interrupt>
  4a:	00 00       	nop
  4c:	4a c0       	rjmp	.+148    	; 0xe2 <__bad_interrupt>
  4e:	00 00       	nop
  50:	48 c0       	rjmp	.+144    	; 0xe2 <__bad_interrupt>
  52:	00 00       	nop
  54:	46 c0       	rjmp	.+140    	; 0xe2 <__bad_interrupt>
  56:	00 00       	nop
  58:	44 c0       	rjmp	.+136    	; 0xe2 <__bad_interrupt>
  5a:	00 00       	nop
  5c:	42 c0       	rjmp	.+132    	; 0xe2 <__bad_interrupt>
  5e:	00 00       	nop
  60:	40 c0       	rjmp	.+128    	; 0xe2 <__bad_interrupt>
  62:	00 00       	nop
  64:	47 c0       	rjmp	.+142    	; 0xf4 <__vector_25>
  66:	00 00       	nop
  68:	7a c0       	rjmp	.+244    	; 0x15e <__vector_26>
  6a:	00 00       	nop
  6c:	3a c0       	rjmp	.+116    	; 0xe2 <__bad_interrupt>
  6e:	00 00       	nop
  70:	38 c0       	rjmp	.+112    	; 0xe2 <__bad_interrupt>
  72:	00 00       	nop
  74:	36 c0       	rjmp	.+108    	; 0xe2 <__bad_interrupt>
  76:	00 00       	nop
  78:	34 c0       	rjmp	.+104    	; 0xe2 <__bad_interrupt>
  7a:	00 00       	nop
  7c:	32 c0       	rjmp	.+100    	; 0xe2 <__bad_interrupt>
  7e:	00 00       	nop
  80:	30 c0       	rjmp	.+96     	; 0xe2 <__bad_interrupt>
  82:	00 00       	nop
  84:	2e c0       	rjmp	.+92     	; 0xe2 <__bad_interrupt>
  86:	00 00       	nop
  88:	2c c0       	rjmp	.+88     	; 0xe2 <__bad_interrupt>
  8a:	00 00       	nop
  8c:	2a c0       	rjmp	.+84     	; 0xe2 <__bad_interrupt>
  8e:	00 00       	nop
  90:	28 c0       	rjmp	.+80     	; 0xe2 <__bad_interrupt>
  92:	00 00       	nop
  94:	26 c0       	rjmp	.+76     	; 0xe2 <__bad_interrupt>
  96:	00 00       	nop
  98:	24 c0       	rjmp	.+72     	; 0xe2 <__bad_interrupt>
  9a:	00 00       	nop
  9c:	22 c0       	rjmp	.+68     	; 0xe2 <__bad_interrupt>
  9e:	00 00       	nop
  a0:	20 c0       	rjmp	.+64     	; 0xe2 <__bad_interrupt>
  a2:	00 00       	nop
  a4:	1e c0       	rjmp	.+60     	; 0xe2 <__bad_interrupt>
  a6:	00 00       	nop
  a8:	1c c0       	rjmp	.+56     	; 0xe2 <__bad_interrupt>
  aa:	00 00       	nop

000000ac <__ctors_end>:
  ac:	11 24       	eor	r1, r1
  ae:	1f be       	out	0x3f, r1	; 63
  b0:	cf ef       	ldi	r28, 0xFF	; 255
  b2:	da e0       	ldi	r29, 0x0A	; 10
  b4:	de bf       	out	0x3e, r29	; 62
  b6:	cd bf       	out	0x3d, r28	; 61

000000b8 <__do_copy_data>:
  b8:	11 e0       	ldi	r17, 0x01	; 1
  ba:	a0 e0       	ldi	r26, 0x00	; 0
  bc:	b1 e0       	ldi	r27, 0x01	; 1
  be:	ee ea       	ldi	r30, 0xAE	; 174
  c0:	f4 e0       	ldi	r31, 0x04	; 4
  c2:	02 c0       	rjmp	.+4      	; 0xc8 <__do_copy_data+0x10>
  c4:	05 90       	lpm	r0, Z+
  c6:	0d 92       	st	X+, r0
  c8:	a0 30       	cpi	r26, 0x00	; 0
  ca:	b1 07       	cpc	r27, r17
  cc:	d9 f7       	brne	.-10     	; 0xc4 <__do_copy_data+0xc>

000000ce <__do_clear_bss>:
  ce:	11 e0       	ldi	r17, 0x01	; 1
  d0:	a0 e0       	ldi	r26, 0x00	; 0
  d2:	b1 e0       	ldi	r27, 0x01	; 1
  d4:	01 c0       	rjmp	.+2      	; 0xd8 <.do_clear_bss_start>

000000d6 <.do_clear_bss_loop>:
  d6:	1d 92       	st	X+, r1

000000d8 <.do_clear_bss_start>:
  d8:	a3 33       	cpi	r26, 0x33	; 51
  da:	b1 07       	cpc	r27, r17
  dc:	e1 f7       	brne	.-8      	; 0xd6 <.do_clear_bss_loop>
  de:	d5 d0       	rcall	.+426    	; 0x28a <main>
  e0:	e4 c1       	rjmp	.+968    	; 0x4aa <_exit>

000000e2 <__bad_interrupt>:
  e2:	58 c0       	rjmp	.+176    	; 0x194 <__vector_default>

000000e4 <Fill_array>:
  e4:	fc 01       	movw	r30, r24
  e6:	01 c0       	rjmp	.+2      	; 0xea <Fill_array+0x6>
  e8:	41 93       	st	Z+, r20
  ea:	9e 2f       	mov	r25, r30
  ec:	98 1b       	sub	r25, r24
  ee:	96 17       	cp	r25, r22
  f0:	d8 f3       	brcs	.-10     	; 0xe8 <Fill_array+0x4>
  f2:	08 95       	ret

000000f4 <__vector_25>:
  f4:	1f 92       	push	r1
  f6:	0f 92       	push	r0
  f8:	0f b6       	in	r0, 0x3f	; 63
  fa:	0f 92       	push	r0
  fc:	11 24       	eor	r1, r1
  fe:	2f 93       	push	r18
 100:	3f 93       	push	r19
 102:	4f 93       	push	r20
 104:	5f 93       	push	r21
 106:	6f 93       	push	r22
 108:	7f 93       	push	r23
 10a:	8f 93       	push	r24
 10c:	9f 93       	push	r25
 10e:	af 93       	push	r26
 110:	bf 93       	push	r27
 112:	cf 93       	push	r28
 114:	ef 93       	push	r30
 116:	ff 93       	push	r31
 118:	c0 91 ce 00 	lds	r28, 0x00CE
 11c:	cc 3b       	cpi	r28, 0xBC	; 188
 11e:	11 f0       	breq	.+4      	; 0x124 <__vector_25+0x30>
 120:	cb 3c       	cpi	r28, 0xCB	; 203
 122:	49 f4       	brne	.+18     	; 0x136 <__vector_25+0x42>
 124:	28 d1       	rcall	.+592    	; 0x376 <get_buff_location>
 126:	81 50       	subi	r24, 0x01	; 1
 128:	20 d1       	rcall	.+576    	; 0x36a <ReadData>
 12a:	8b 3a       	cpi	r24, 0xAB	; 171
 12c:	21 f4       	brne	.+8      	; 0x136 <__vector_25+0x42>
 12e:	80 e0       	ldi	r24, 0x00	; 0
 130:	25 d1       	rcall	.+586    	; 0x37c <set_buff_location>
 132:	8b ea       	ldi	r24, 0xAB	; 171
 134:	09 d1       	rcall	.+530    	; 0x348 <PushData>
 136:	8c 2f       	mov	r24, r28
 138:	07 d1       	rcall	.+526    	; 0x348 <PushData>
 13a:	ff 91       	pop	r31
 13c:	ef 91       	pop	r30
 13e:	cf 91       	pop	r28
 140:	bf 91       	pop	r27
 142:	af 91       	pop	r26
 144:	9f 91       	pop	r25
 146:	8f 91       	pop	r24
 148:	7f 91       	pop	r23
 14a:	6f 91       	pop	r22
 14c:	5f 91       	pop	r21
 14e:	4f 91       	pop	r20
 150:	3f 91       	pop	r19
 152:	2f 91       	pop	r18
 154:	0f 90       	pop	r0
 156:	0f be       	out	0x3f, r0	; 63
 158:	0f 90       	pop	r0
 15a:	1f 90       	pop	r1
 15c:	18 95       	reti

0000015e <__vector_26>:
 15e:	1f 92       	push	r1
 160:	0f 92       	push	r0
 162:	0f b6       	in	r0, 0x3f	; 63
 164:	0f 92       	push	r0
 166:	11 24       	eor	r1, r1
 168:	8f 93       	push	r24
 16a:	9f 93       	push	r25
 16c:	8b b1       	in	r24, 0x0b	; 11
 16e:	90 e4       	ldi	r25, 0x40	; 64
 170:	89 27       	eor	r24, r25
 172:	8b b9       	out	0x0b, r24	; 11
 174:	81 e6       	ldi	r24, 0x61	; 97
 176:	80 93 ce 00 	sts	0x00CE, r24
 17a:	8f e9       	ldi	r24, 0x9F	; 159
 17c:	9f e0       	ldi	r25, 0x0F	; 15
 17e:	01 97       	sbiw	r24, 0x01	; 1
 180:	f1 f7       	brne	.-4      	; 0x17e <__vector_26+0x20>
 182:	00 c0       	rjmp	.+0      	; 0x184 <__vector_26+0x26>
 184:	00 00       	nop
 186:	9f 91       	pop	r25
 188:	8f 91       	pop	r24
 18a:	0f 90       	pop	r0
 18c:	0f be       	out	0x3f, r0	; 63
 18e:	0f 90       	pop	r0
 190:	1f 90       	pop	r1
 192:	18 95       	reti

00000194 <__vector_default>:
 194:	1f 92       	push	r1
 196:	0f 92       	push	r0
 198:	0f b6       	in	r0, 0x3f	; 63
 19a:	0f 92       	push	r0
 19c:	11 24       	eor	r1, r1
 19e:	90 e4       	ldi	r25, 0x40	; 64
 1a0:	8b b1       	in	r24, 0x0b	; 11
 1a2:	89 27       	eor	r24, r25
 1a4:	8b b9       	out	0x0b, r24	; 11
 1a6:	2f ef       	ldi	r18, 0xFF	; 255
 1a8:	31 ee       	ldi	r19, 0xE1	; 225
 1aa:	44 e0       	ldi	r20, 0x04	; 4
 1ac:	21 50       	subi	r18, 0x01	; 1
 1ae:	30 40       	sbci	r19, 0x00	; 0
 1b0:	40 40       	sbci	r20, 0x00	; 0
 1b2:	e1 f7       	brne	.-8      	; 0x1ac <__vector_default+0x18>
 1b4:	00 c0       	rjmp	.+0      	; 0x1b6 <__vector_default+0x22>
 1b6:	00 00       	nop
 1b8:	f3 cf       	rjmp	.-26     	; 0x1a0 <__vector_default+0xc>

000001ba <verify_buff>:
 1ba:	80 e0       	ldi	r24, 0x00	; 0
 1bc:	d6 d0       	rcall	.+428    	; 0x36a <ReadData>
 1be:	8b 3a       	cpi	r24, 0xAB	; 171
 1c0:	79 f4       	brne	.+30     	; 0x1e0 <verify_buff+0x26>
 1c2:	81 e0       	ldi	r24, 0x01	; 1
 1c4:	d2 d0       	rcall	.+420    	; 0x36a <ReadData>
 1c6:	8c 3b       	cpi	r24, 0xBC	; 188
 1c8:	11 f4       	brne	.+4      	; 0x1ce <verify_buff+0x14>
 1ca:	83 e0       	ldi	r24, 0x03	; 3
 1cc:	05 c0       	rjmp	.+10     	; 0x1d8 <verify_buff+0x1e>
 1ce:	81 e0       	ldi	r24, 0x01	; 1
 1d0:	cc d0       	rcall	.+408    	; 0x36a <ReadData>
 1d2:	8b 3c       	cpi	r24, 0xCB	; 203
 1d4:	29 f4       	brne	.+10     	; 0x1e0 <verify_buff+0x26>
 1d6:	82 e2       	ldi	r24, 0x22	; 34
 1d8:	c8 d0       	rcall	.+400    	; 0x36a <ReadData>
 1da:	91 e0       	ldi	r25, 0x01	; 1
 1dc:	8a 3b       	cpi	r24, 0xBA	; 186
 1de:	09 f0       	breq	.+2      	; 0x1e2 <verify_buff+0x28>
 1e0:	90 e0       	ldi	r25, 0x00	; 0
 1e2:	89 2f       	mov	r24, r25
 1e4:	08 95       	ret

000001e6 <display_mode>:
 1e6:	cf 92       	push	r12
 1e8:	df 92       	push	r13
 1ea:	ef 92       	push	r14
 1ec:	ff 92       	push	r15
 1ee:	1f 93       	push	r17
 1f0:	cf 93       	push	r28
 1f2:	df 93       	push	r29
 1f4:	ec 01       	movw	r28, r24
 1f6:	81 e0       	ldi	r24, 0x01	; 1
 1f8:	b8 d0       	rcall	.+368    	; 0x36a <ReadData>
 1fa:	8c 3b       	cpi	r24, 0xBC	; 188
 1fc:	e9 f4       	brne	.+58     	; 0x238 <display_mode+0x52>
 1fe:	82 e0       	ldi	r24, 0x02	; 2
 200:	b4 d0       	rcall	.+360    	; 0x36a <ReadData>
 202:	60 e0       	ldi	r22, 0x00	; 0
 204:	ae 01       	movw	r20, r28
 206:	f8 d0       	rcall	.+496    	; 0x3f8 <hs_convert>
 208:	8f e9       	ldi	r24, 0x9F	; 159
 20a:	9f e0       	ldi	r25, 0x0F	; 15
 20c:	01 97       	sbiw	r24, 0x01	; 1
 20e:	f1 f7       	brne	.-4      	; 0x20c <display_mode+0x26>
 210:	00 c0       	rjmp	.+0      	; 0x212 <display_mode+0x2c>
 212:	00 00       	nop
 214:	10 e2       	ldi	r17, 0x20	; 32
 216:	7e 01       	movw	r14, r28
 218:	08 94       	sec
 21a:	e1 1c       	adc	r14, r1
 21c:	f1 1c       	adc	r15, r1
 21e:	92 e0       	ldi	r25, 0x02	; 2
 220:	c9 2e       	mov	r12, r25
 222:	d1 2c       	mov	r13, r1
 224:	cc 0e       	add	r12, r28
 226:	dd 1e       	adc	r13, r29
 228:	ce 01       	movw	r24, r28
 22a:	b7 01       	movw	r22, r14
 22c:	a6 01       	movw	r20, r12
 22e:	21 e0       	ldi	r18, 0x01	; 1
 230:	b4 d0       	rcall	.+360    	; 0x39a <Send_SPI_array>
 232:	11 50       	subi	r17, 0x01	; 1
 234:	c9 f7       	brne	.-14     	; 0x228 <display_mode+0x42>
 236:	21 c0       	rjmp	.+66     	; 0x27a <display_mode+0x94>
 238:	81 e0       	ldi	r24, 0x01	; 1
 23a:	97 d0       	rcall	.+302    	; 0x36a <ReadData>
 23c:	8b 3c       	cpi	r24, 0xCB	; 203
 23e:	e9 f4       	brne	.+58     	; 0x27a <display_mode+0x94>
 240:	8f e9       	ldi	r24, 0x9F	; 159
 242:	9f e0       	ldi	r25, 0x0F	; 15
 244:	01 97       	sbiw	r24, 0x01	; 1
 246:	f1 f7       	brne	.-4      	; 0x244 <display_mode+0x5e>
 248:	00 c0       	rjmp	.+0      	; 0x24a <display_mode+0x64>
 24a:	00 00       	nop
 24c:	12 e0       	ldi	r17, 0x02	; 2
 24e:	7e 01       	movw	r14, r28
 250:	08 94       	sec
 252:	e1 1c       	adc	r14, r1
 254:	f1 1c       	adc	r15, r1
 256:	82 e0       	ldi	r24, 0x02	; 2
 258:	c8 2e       	mov	r12, r24
 25a:	d1 2c       	mov	r13, r1
 25c:	cc 0e       	add	r12, r28
 25e:	dd 1e       	adc	r13, r29
 260:	81 2f       	mov	r24, r17
 262:	83 d0       	rcall	.+262    	; 0x36a <ReadData>
 264:	60 e0       	ldi	r22, 0x00	; 0
 266:	ae 01       	movw	r20, r28
 268:	c7 d0       	rcall	.+398    	; 0x3f8 <hs_convert>
 26a:	ce 01       	movw	r24, r28
 26c:	b7 01       	movw	r22, r14
 26e:	a6 01       	movw	r20, r12
 270:	21 e0       	ldi	r18, 0x01	; 1
 272:	93 d0       	rcall	.+294    	; 0x39a <Send_SPI_array>
 274:	1f 5f       	subi	r17, 0xFF	; 255
 276:	12 32       	cpi	r17, 0x22	; 34
 278:	99 f7       	brne	.-26     	; 0x260 <display_mode+0x7a>
 27a:	df 91       	pop	r29
 27c:	cf 91       	pop	r28
 27e:	1f 91       	pop	r17
 280:	ff 90       	pop	r15
 282:	ef 90       	pop	r14
 284:	df 90       	pop	r13
 286:	cf 90       	pop	r12
 288:	08 95       	ret

0000028a <main>:
 28a:	cf 93       	push	r28
 28c:	df 93       	push	r29
 28e:	cd b7       	in	r28, 0x3d	; 61
 290:	de b7       	in	r29, 0x3e	; 62
 292:	c9 59       	subi	r28, 0x99	; 153
 294:	d0 40       	sbci	r29, 0x00	; 0
 296:	0f b6       	in	r0, 0x3f	; 63
 298:	f8 94       	cli
 29a:	de bf       	out	0x3e, r29	; 62
 29c:	0f be       	out	0x3f, r0	; 63
 29e:	cd bf       	out	0x3d, r28	; 61
 2a0:	80 e8       	ldi	r24, 0x80	; 128
 2a2:	80 93 61 00 	sts	0x0061, r24
 2a6:	10 92 61 00 	sts	0x0061, r1
 2aa:	80 e4       	ldi	r24, 0x40	; 64
 2ac:	8a b9       	out	0x0a, r24	; 10
 2ae:	69 d0       	rcall	.+210    	; 0x382 <Setup_SPI>
 2b0:	39 d0       	rcall	.+114    	; 0x324 <Setup_USART>
 2b2:	8f ef       	ldi	r24, 0xFF	; 255
 2b4:	93 ec       	ldi	r25, 0xC3	; 195
 2b6:	a9 e0       	ldi	r26, 0x09	; 9
 2b8:	81 50       	subi	r24, 0x01	; 1
 2ba:	90 40       	sbci	r25, 0x00	; 0
 2bc:	a0 40       	sbci	r26, 0x00	; 0
 2be:	e1 f7       	brne	.-8      	; 0x2b8 <main+0x2e>
 2c0:	00 c0       	rjmp	.+0      	; 0x2c2 <main+0x38>
 2c2:	00 00       	nop
 2c4:	5e 9a       	sbi	0x0b, 6	; 11
 2c6:	ce 01       	movw	r24, r28
 2c8:	88 59       	subi	r24, 0x98	; 152
 2ca:	9f 4f       	sbci	r25, 0xFF	; 255
 2cc:	60 e2       	ldi	r22, 0x20	; 32
 2ce:	40 e0       	ldi	r20, 0x00	; 0
 2d0:	09 df       	rcall	.-494    	; 0xe4 <Fill_array>
 2d2:	ce 01       	movw	r24, r28
 2d4:	c6 96       	adiw	r24, 0x36	; 54
 2d6:	60 e2       	ldi	r22, 0x20	; 32
 2d8:	40 e0       	ldi	r20, 0x00	; 0
 2da:	04 df       	rcall	.-504    	; 0xe4 <Fill_array>
 2dc:	ce 01       	movw	r24, r28
 2de:	04 96       	adiw	r24, 0x04	; 4
 2e0:	60 e2       	ldi	r22, 0x20	; 32
 2e2:	40 e0       	ldi	r20, 0x00	; 0
 2e4:	ff de       	rcall	.-514    	; 0xe4 <Fill_array>
 2e6:	80 e0       	ldi	r24, 0x00	; 0
 2e8:	49 d0       	rcall	.+146    	; 0x37c <set_buff_location>
 2ea:	8b ea       	ldi	r24, 0xAB	; 171
 2ec:	2d d0       	rcall	.+90     	; 0x348 <PushData>
 2ee:	8b ec       	ldi	r24, 0xCB	; 203
 2f0:	2b d0       	rcall	.+86     	; 0x348 <PushData>
 2f2:	17 e0       	ldi	r17, 0x07	; 7
 2f4:	81 2f       	mov	r24, r17
 2f6:	28 d0       	rcall	.+80     	; 0x348 <PushData>
 2f8:	19 5f       	subi	r17, 0xF9	; 249
 2fa:	17 3e       	cpi	r17, 0xE7	; 231
 2fc:	d9 f7       	brne	.-10     	; 0x2f4 <main+0x6a>
 2fe:	8a eb       	ldi	r24, 0xBA	; 186
 300:	23 d0       	rcall	.+70     	; 0x348 <PushData>
 302:	78 94       	sei
 304:	8f ef       	ldi	r24, 0xFF	; 255
 306:	93 ec       	ldi	r25, 0xC3	; 195
 308:	a9 e0       	ldi	r26, 0x09	; 9
 30a:	81 50       	subi	r24, 0x01	; 1
 30c:	90 40       	sbci	r25, 0x00	; 0
 30e:	a0 40       	sbci	r26, 0x00	; 0
 310:	e1 f7       	brne	.-8      	; 0x30a <main+0x80>
 312:	00 c0       	rjmp	.+0      	; 0x314 <main+0x8a>
 314:	00 00       	nop
 316:	51 df       	rcall	.-350    	; 0x1ba <verify_buff>
 318:	88 23       	and	r24, r24
 31a:	e9 f3       	breq	.-6      	; 0x316 <main+0x8c>
 31c:	ce 01       	movw	r24, r28
 31e:	01 96       	adiw	r24, 0x01	; 1
 320:	62 df       	rcall	.-316    	; 0x1e6 <display_mode>
 322:	f9 cf       	rjmp	.-14     	; 0x316 <main+0x8c>

00000324 <Setup_USART>:
 324:	53 9a       	sbi	0x0a, 3	; 10
 326:	52 98       	cbi	0x0a, 2	; 10
 328:	82 e0       	ldi	r24, 0x02	; 2
 32a:	80 93 c8 00 	sts	0x00C8, r24
 32e:	88 e9       	ldi	r24, 0x98	; 152
 330:	80 93 c9 00 	sts	0x00C9, r24
 334:	86 e0       	ldi	r24, 0x06	; 6
 336:	80 93 ca 00 	sts	0x00CA, r24
 33a:	82 e2       	ldi	r24, 0x22	; 34
 33c:	90 e0       	ldi	r25, 0x00	; 0
 33e:	90 93 cd 00 	sts	0x00CD, r25
 342:	80 93 cc 00 	sts	0x00CC, r24
 346:	08 95       	ret

00000348 <PushData>:
 348:	90 91 00 01 	lds	r25, 0x0100
 34c:	92 33       	cpi	r25, 0x32	; 50
 34e:	10 f0       	brcs	.+4      	; 0x354 <PushData+0xc>
 350:	10 92 00 01 	sts	0x0100, r1
 354:	90 91 00 01 	lds	r25, 0x0100
 358:	e9 2f       	mov	r30, r25
 35a:	f0 e0       	ldi	r31, 0x00	; 0
 35c:	ef 5f       	subi	r30, 0xFF	; 255
 35e:	fe 4f       	sbci	r31, 0xFE	; 254
 360:	80 83       	st	Z, r24
 362:	9f 5f       	subi	r25, 0xFF	; 255
 364:	90 93 00 01 	sts	0x0100, r25
 368:	08 95       	ret

0000036a <ReadData>:
 36a:	e1 e0       	ldi	r30, 0x01	; 1
 36c:	f1 e0       	ldi	r31, 0x01	; 1
 36e:	e8 0f       	add	r30, r24
 370:	f1 1d       	adc	r31, r1
 372:	80 81       	ld	r24, Z
 374:	08 95       	ret

00000376 <get_buff_location>:
 376:	80 91 00 01 	lds	r24, 0x0100
 37a:	08 95       	ret

0000037c <set_buff_location>:
 37c:	80 93 00 01 	sts	0x0100, r24
 380:	08 95       	ret

00000382 <Setup_SPI>:
 382:	84 b1       	in	r24, 0x04	; 4
 384:	87 60       	ori	r24, 0x07	; 7
 386:	84 b9       	out	0x04, r24	; 4
 388:	23 98       	cbi	0x04, 3	; 4
 38a:	81 e5       	ldi	r24, 0x51	; 81
 38c:	8c bd       	out	0x2c, r24	; 44
 38e:	08 95       	ret

00000390 <Send_SPI_byte>:
 390:	8e bd       	out	0x2e, r24	; 46
 392:	0d b4       	in	r0, 0x2d	; 45
 394:	07 fe       	sbrs	r0, 7
 396:	fd cf       	rjmp	.-6      	; 0x392 <Send_SPI_byte+0x2>
 398:	08 95       	ret

0000039a <Send_SPI_array>:
 39a:	af 92       	push	r10
 39c:	bf 92       	push	r11
 39e:	cf 92       	push	r12
 3a0:	df 92       	push	r13
 3a2:	ef 92       	push	r14
 3a4:	ff 92       	push	r15
 3a6:	1f 93       	push	r17
 3a8:	cf 93       	push	r28
 3aa:	df 93       	push	r29
 3ac:	0f 92       	push	r0
 3ae:	cd b7       	in	r28, 0x3d	; 61
 3b0:	de b7       	in	r29, 0x3e	; 62
 3b2:	18 2f       	mov	r17, r24
 3b4:	7b 01       	movw	r14, r22
 3b6:	6a 01       	movw	r12, r20
 3b8:	a8 2e       	mov	r10, r24
 3ba:	b9 2e       	mov	r11, r25
 3bc:	0e c0       	rjmp	.+28     	; 0x3da <Send_SPI_array+0x40>
 3be:	f5 01       	movw	r30, r10
 3c0:	81 91       	ld	r24, Z+
 3c2:	5f 01       	movw	r10, r30
 3c4:	29 83       	std	Y+1, r18	; 0x01
 3c6:	e4 df       	rcall	.-56     	; 0x390 <Send_SPI_byte>
 3c8:	f7 01       	movw	r30, r14
 3ca:	81 91       	ld	r24, Z+
 3cc:	7f 01       	movw	r14, r30
 3ce:	e0 df       	rcall	.-64     	; 0x390 <Send_SPI_byte>
 3d0:	f6 01       	movw	r30, r12
 3d2:	81 91       	ld	r24, Z+
 3d4:	6f 01       	movw	r12, r30
 3d6:	dc df       	rcall	.-72     	; 0x390 <Send_SPI_byte>
 3d8:	29 81       	ldd	r18, Y+1	; 0x01
 3da:	8a 2d       	mov	r24, r10
 3dc:	81 1b       	sub	r24, r17
 3de:	82 17       	cp	r24, r18
 3e0:	70 f3       	brcs	.-36     	; 0x3be <Send_SPI_array+0x24>
 3e2:	0f 90       	pop	r0
 3e4:	df 91       	pop	r29
 3e6:	cf 91       	pop	r28
 3e8:	1f 91       	pop	r17
 3ea:	ff 90       	pop	r15
 3ec:	ef 90       	pop	r14
 3ee:	df 90       	pop	r13
 3f0:	cf 90       	pop	r12
 3f2:	bf 90       	pop	r11
 3f4:	af 90       	pop	r10
 3f6:	08 95       	ret

000003f8 <hs_convert>:
 3f8:	fa 01       	movw	r30, r20
 3fa:	10 82       	st	Z, r1
 3fc:	11 82       	std	Z+1, r1	; 0x01
 3fe:	12 82       	std	Z+2, r1	; 0x02
 400:	84 32       	cpi	r24, 0x24	; 36
 402:	28 f4       	brcc	.+10     	; 0x40e <hs_convert+0x16>
 404:	97 e0       	ldi	r25, 0x07	; 7
 406:	89 9f       	mul	r24, r25
 408:	90 2d       	mov	r25, r0
 40a:	11 24       	eor	r1, r1
 40c:	90 83       	st	Z, r25
 40e:	98 2f       	mov	r25, r24
 410:	94 52       	subi	r25, 0x24	; 36
 412:	94 32       	cpi	r25, 0x24	; 36
 414:	40 f4       	brcc	.+16     	; 0x426 <hs_convert+0x2e>
 416:	9f ef       	ldi	r25, 0xFF	; 255
 418:	90 83       	st	Z, r25
 41a:	97 e0       	ldi	r25, 0x07	; 7
 41c:	89 9f       	mul	r24, r25
 41e:	90 2d       	mov	r25, r0
 420:	11 24       	eor	r1, r1
 422:	9c 5f       	subi	r25, 0xFC	; 252
 424:	91 83       	std	Z+1, r25	; 0x01
 426:	98 2f       	mov	r25, r24
 428:	98 54       	subi	r25, 0x48	; 72
 42a:	94 32       	cpi	r25, 0x24	; 36
 42c:	40 f4       	brcc	.+16     	; 0x43e <hs_convert+0x46>
 42e:	9f ef       	ldi	r25, 0xFF	; 255
 430:	91 83       	std	Z+1, r25	; 0x01
 432:	99 ef       	ldi	r25, 0xF9	; 249
 434:	89 9f       	mul	r24, r25
 436:	90 2d       	mov	r25, r0
 438:	11 24       	eor	r1, r1
 43a:	99 50       	subi	r25, 0x09	; 9
 43c:	90 83       	st	Z, r25
 43e:	98 2f       	mov	r25, r24
 440:	9c 56       	subi	r25, 0x6C	; 108
 442:	94 32       	cpi	r25, 0x24	; 36
 444:	40 f4       	brcc	.+16     	; 0x456 <hs_convert+0x5e>
 446:	9f ef       	ldi	r25, 0xFF	; 255
 448:	91 83       	std	Z+1, r25	; 0x01
 44a:	97 e0       	ldi	r25, 0x07	; 7
 44c:	89 9f       	mul	r24, r25
 44e:	90 2d       	mov	r25, r0
 450:	11 24       	eor	r1, r1
 452:	94 5f       	subi	r25, 0xF4	; 244
 454:	92 83       	std	Z+2, r25	; 0x02
 456:	98 2f       	mov	r25, r24
 458:	90 59       	subi	r25, 0x90	; 144
 45a:	94 32       	cpi	r25, 0x24	; 36
 45c:	40 f4       	brcc	.+16     	; 0x46e <hs_convert+0x76>
 45e:	9f ef       	ldi	r25, 0xFF	; 255
 460:	92 83       	std	Z+2, r25	; 0x02
 462:	99 ef       	ldi	r25, 0xF9	; 249
 464:	89 9f       	mul	r24, r25
 466:	90 2d       	mov	r25, r0
 468:	11 24       	eor	r1, r1
 46a:	91 51       	subi	r25, 0x11	; 17
 46c:	91 83       	std	Z+1, r25	; 0x01
 46e:	98 2f       	mov	r25, r24
 470:	94 5b       	subi	r25, 0xB4	; 180
 472:	94 32       	cpi	r25, 0x24	; 36
 474:	40 f4       	brcc	.+16     	; 0x486 <hs_convert+0x8e>
 476:	9f ef       	ldi	r25, 0xFF	; 255
 478:	92 83       	std	Z+2, r25	; 0x02
 47a:	97 e0       	ldi	r25, 0x07	; 7
 47c:	89 9f       	mul	r24, r25
 47e:	90 2d       	mov	r25, r0
 480:	11 24       	eor	r1, r1
 482:	9c 5e       	subi	r25, 0xEC	; 236
 484:	90 83       	st	Z, r25
 486:	98 2f       	mov	r25, r24
 488:	98 5d       	subi	r25, 0xD8	; 216
 48a:	94 32       	cpi	r25, 0x24	; 36
 48c:	48 f4       	brcc	.+18     	; 0x4a0 <hs_convert+0xa8>
 48e:	9f ef       	ldi	r25, 0xFF	; 255
 490:	90 83       	st	Z, r25
 492:	99 ef       	ldi	r25, 0xF9	; 249
 494:	89 9f       	mul	r24, r25
 496:	80 2d       	mov	r24, r0
 498:	11 24       	eor	r1, r1
 49a:	89 51       	subi	r24, 0x19	; 25
 49c:	82 83       	std	Z+2, r24	; 0x02
 49e:	08 95       	ret
 4a0:	8c 3f       	cpi	r24, 0xFC	; 252
 4a2:	10 f0       	brcs	.+4      	; 0x4a8 <hs_convert+0xb0>
 4a4:	8f ef       	ldi	r24, 0xFF	; 255
 4a6:	80 83       	st	Z, r24
 4a8:	08 95       	ret

000004aa <_exit>:
 4aa:	f8 94       	cli

000004ac <__stop_program>:
 4ac:	ff cf       	rjmp	.-2      	; 0x4ac <__stop_program>
