
main.elf:     file format elf32-avr

Sections:
Idx Name          Size      VMA       LMA       File off  Algn
  0 .data         00000000  00800100  000004c0  00000554  2**0
                  CONTENTS, ALLOC, LOAD, DATA
  1 .text         000004c0  00000000  00000000  00000094  2**1
                  CONTENTS, ALLOC, LOAD, READONLY, CODE
  2 .bss          00000065  00800100  00800100  00000554  2**0
                  ALLOC
  3 .stab         000006cc  00000000  00000000  00000554  2**2
                  CONTENTS, READONLY, DEBUGGING
  4 .stabstr      00000081  00000000  00000000  00000c20  2**0
                  CONTENTS, READONLY, DEBUGGING
  5 .debug_aranges 00000080  00000000  00000000  00000ca8  2**3
                  CONTENTS, READONLY, DEBUGGING
  6 .debug_info   00000300  00000000  00000000  00000d28  2**0
                  CONTENTS, READONLY, DEBUGGING
  7 .debug_abbrev 00000050  00000000  00000000  00001028  2**0
                  CONTENTS, READONLY, DEBUGGING
  8 .debug_line   00000189  00000000  00000000  00001078  2**0
                  CONTENTS, READONLY, DEBUGGING

Disassembly of section .text:

00000000 <__vectors>:
   0:	55 c0       	rjmp	.+170    	; 0xac <__ctors_end>
   2:	00 00       	nop
   4:	6e c0       	rjmp	.+220    	; 0xe2 <__bad_interrupt>
   6:	00 00       	nop
   8:	6c c0       	rjmp	.+216    	; 0xe2 <__bad_interrupt>
   a:	00 00       	nop
   c:	6a c0       	rjmp	.+212    	; 0xe2 <__bad_interrupt>
   e:	00 00       	nop
  10:	68 c0       	rjmp	.+208    	; 0xe2 <__bad_interrupt>
  12:	00 00       	nop
  14:	66 c0       	rjmp	.+204    	; 0xe2 <__bad_interrupt>
  16:	00 00       	nop
  18:	64 c0       	rjmp	.+200    	; 0xe2 <__bad_interrupt>
  1a:	00 00       	nop
  1c:	62 c0       	rjmp	.+196    	; 0xe2 <__bad_interrupt>
  1e:	00 00       	nop
  20:	60 c0       	rjmp	.+192    	; 0xe2 <__bad_interrupt>
  22:	00 00       	nop
  24:	5e c0       	rjmp	.+188    	; 0xe2 <__bad_interrupt>
  26:	00 00       	nop
  28:	5c c0       	rjmp	.+184    	; 0xe2 <__bad_interrupt>
  2a:	00 00       	nop
  2c:	5a c0       	rjmp	.+180    	; 0xe2 <__bad_interrupt>
  2e:	00 00       	nop
  30:	58 c0       	rjmp	.+176    	; 0xe2 <__bad_interrupt>
  32:	00 00       	nop
  34:	56 c0       	rjmp	.+172    	; 0xe2 <__bad_interrupt>
  36:	00 00       	nop
  38:	54 c0       	rjmp	.+168    	; 0xe2 <__bad_interrupt>
  3a:	00 00       	nop
  3c:	52 c0       	rjmp	.+164    	; 0xe2 <__bad_interrupt>
  3e:	00 00       	nop
  40:	50 c0       	rjmp	.+160    	; 0xe2 <__bad_interrupt>
  42:	00 00       	nop
  44:	d2 c0       	rjmp	.+420    	; 0x1ea <__vector_17>
  46:	00 00       	nop
  48:	4c c0       	rjmp	.+152    	; 0xe2 <__bad_interrupt>
  4a:	00 00       	nop
  4c:	4a c0       	rjmp	.+148    	; 0xe2 <__bad_interrupt>
  4e:	00 00       	nop
  50:	48 c0       	rjmp	.+144    	; 0xe2 <__bad_interrupt>
  52:	00 00       	nop
  54:	46 c0       	rjmp	.+140    	; 0xe2 <__bad_interrupt>
  56:	00 00       	nop
  58:	44 c0       	rjmp	.+136    	; 0xe2 <__bad_interrupt>
  5a:	00 00       	nop
  5c:	42 c0       	rjmp	.+132    	; 0xe2 <__bad_interrupt>
  5e:	00 00       	nop
  60:	40 c0       	rjmp	.+128    	; 0xe2 <__bad_interrupt>
  62:	00 00       	nop
  64:	68 c0       	rjmp	.+208    	; 0x136 <__vector_25>
  66:	00 00       	nop
  68:	92 c0       	rjmp	.+292    	; 0x18e <__vector_26>
  6a:	00 00       	nop
  6c:	3a c0       	rjmp	.+116    	; 0xe2 <__bad_interrupt>
  6e:	00 00       	nop
  70:	38 c0       	rjmp	.+112    	; 0xe2 <__bad_interrupt>
  72:	00 00       	nop
  74:	36 c0       	rjmp	.+108    	; 0xe2 <__bad_interrupt>
  76:	00 00       	nop
  78:	34 c0       	rjmp	.+104    	; 0xe2 <__bad_interrupt>
  7a:	00 00       	nop
  7c:	32 c0       	rjmp	.+100    	; 0xe2 <__bad_interrupt>
  7e:	00 00       	nop
  80:	30 c0       	rjmp	.+96     	; 0xe2 <__bad_interrupt>
  82:	00 00       	nop
  84:	2e c0       	rjmp	.+92     	; 0xe2 <__bad_interrupt>
  86:	00 00       	nop
  88:	2c c0       	rjmp	.+88     	; 0xe2 <__bad_interrupt>
  8a:	00 00       	nop
  8c:	2a c0       	rjmp	.+84     	; 0xe2 <__bad_interrupt>
  8e:	00 00       	nop
  90:	70 c1       	rjmp	.+736    	; 0x372 <__vector_36>
  92:	00 00       	nop
  94:	26 c0       	rjmp	.+76     	; 0xe2 <__bad_interrupt>
  96:	00 00       	nop
  98:	24 c0       	rjmp	.+72     	; 0xe2 <__bad_interrupt>
  9a:	00 00       	nop
  9c:	22 c0       	rjmp	.+68     	; 0xe2 <__bad_interrupt>
  9e:	00 00       	nop
  a0:	20 c0       	rjmp	.+64     	; 0xe2 <__bad_interrupt>
  a2:	00 00       	nop
  a4:	1e c0       	rjmp	.+60     	; 0xe2 <__bad_interrupt>
  a6:	00 00       	nop
  a8:	1c c0       	rjmp	.+56     	; 0xe2 <__bad_interrupt>
  aa:	00 00       	nop

000000ac <__ctors_end>:
  ac:	11 24       	eor	r1, r1
  ae:	1f be       	out	0x3f, r1	; 63
  b0:	cf ef       	ldi	r28, 0xFF	; 255
  b2:	da e0       	ldi	r29, 0x0A	; 10
  b4:	de bf       	out	0x3e, r29	; 62
  b6:	cd bf       	out	0x3d, r28	; 61

000000b8 <__do_copy_data>:
  b8:	11 e0       	ldi	r17, 0x01	; 1
  ba:	a0 e0       	ldi	r26, 0x00	; 0
  bc:	b1 e0       	ldi	r27, 0x01	; 1
  be:	e0 ec       	ldi	r30, 0xC0	; 192
  c0:	f4 e0       	ldi	r31, 0x04	; 4
  c2:	02 c0       	rjmp	.+4      	; 0xc8 <__do_copy_data+0x10>
  c4:	05 90       	lpm	r0, Z+
  c6:	0d 92       	st	X+, r0
  c8:	a0 30       	cpi	r26, 0x00	; 0
  ca:	b1 07       	cpc	r27, r17
  cc:	d9 f7       	brne	.-10     	; 0xc4 <__do_copy_data+0xc>

000000ce <__do_clear_bss>:
  ce:	11 e0       	ldi	r17, 0x01	; 1
  d0:	a0 e0       	ldi	r26, 0x00	; 0
  d2:	b1 e0       	ldi	r27, 0x01	; 1
  d4:	01 c0       	rjmp	.+2      	; 0xd8 <.do_clear_bss_start>

000000d6 <.do_clear_bss_loop>:
  d6:	1d 92       	st	X+, r1

000000d8 <.do_clear_bss_start>:
  d8:	a5 36       	cpi	r26, 0x65	; 101
  da:	b1 07       	cpc	r27, r17
  dc:	e1 f7       	brne	.-8      	; 0xd6 <.do_clear_bss_loop>
  de:	c1 d0       	rcall	.+386    	; 0x262 <main>
  e0:	ed c1       	rjmp	.+986    	; 0x4bc <_exit>

000000e2 <__bad_interrupt>:
  e2:	70 c0       	rjmp	.+224    	; 0x1c4 <__vector_default>

000000e4 <Setup_Timer>:
  e4:	10 92 80 00 	sts	0x0080, r1
  e8:	8c e0       	ldi	r24, 0x0C	; 12
  ea:	80 93 81 00 	sts	0x0081, r24
  ee:	82 e0       	ldi	r24, 0x02	; 2
  f0:	80 93 6f 00 	sts	0x006F, r24
  f4:	10 92 85 00 	sts	0x0085, r1
  f8:	10 92 84 00 	sts	0x0084, r1
  fc:	80 e6       	ldi	r24, 0x60	; 96
  fe:	9a ee       	ldi	r25, 0xEA	; 234
 100:	90 93 89 00 	sts	0x0089, r25
 104:	80 93 88 00 	sts	0x0088, r24
 108:	08 95       	ret

0000010a <rtc_read>:
 10a:	cf 93       	push	r28
 10c:	df 93       	push	r29
 10e:	00 d0       	rcall	.+0      	; 0x110 <rtc_read+0x6>
 110:	cd b7       	in	r28, 0x3d	; 61
 112:	de b7       	in	r29, 0x3e	; 62
 114:	19 82       	std	Y+1, r1	; 0x01
 116:	80 ed       	ldi	r24, 0xD0	; 208
 118:	be 01       	movw	r22, r28
 11a:	6f 5f       	subi	r22, 0xFF	; 255
 11c:	7f 4f       	sbci	r23, 0xFF	; 255
 11e:	41 e0       	ldi	r20, 0x01	; 1
 120:	ab d1       	rcall	.+854    	; 0x478 <twi_write>
 122:	80 ed       	ldi	r24, 0xD0	; 208
 124:	62 e0       	ldi	r22, 0x02	; 2
 126:	71 e0       	ldi	r23, 0x01	; 1
 128:	48 e0       	ldi	r20, 0x08	; 8
 12a:	b7 d1       	rcall	.+878    	; 0x49a <twi_read>
 12c:	0f 90       	pop	r0
 12e:	0f 90       	pop	r0
 130:	df 91       	pop	r29
 132:	cf 91       	pop	r28
 134:	08 95       	ret

00000136 <__vector_25>:
 136:	1f 92       	push	r1
 138:	0f 92       	push	r0
 13a:	0f b6       	in	r0, 0x3f	; 63
 13c:	0f 92       	push	r0
 13e:	11 24       	eor	r1, r1
 140:	2f 93       	push	r18
 142:	3f 93       	push	r19
 144:	4f 93       	push	r20
 146:	5f 93       	push	r21
 148:	6f 93       	push	r22
 14a:	7f 93       	push	r23
 14c:	8f 93       	push	r24
 14e:	9f 93       	push	r25
 150:	af 93       	push	r26
 152:	bf 93       	push	r27
 154:	cf 93       	push	r28
 156:	ef 93       	push	r30
 158:	ff 93       	push	r31
 15a:	c0 91 ce 00 	lds	r28, 0x00CE
 15e:	cf 3f       	cpi	r28, 0xFF	; 255
 160:	11 f4       	brne	.+4      	; 0x166 <__vector_25+0x30>
 162:	80 e0       	ldi	r24, 0x00	; 0
 164:	fc d0       	rcall	.+504    	; 0x35e <set_buff_location>
 166:	8c 2f       	mov	r24, r28
 168:	e8 d0       	rcall	.+464    	; 0x33a <PushData>
 16a:	ff 91       	pop	r31
 16c:	ef 91       	pop	r30
 16e:	cf 91       	pop	r28
 170:	bf 91       	pop	r27
 172:	af 91       	pop	r26
 174:	9f 91       	pop	r25
 176:	8f 91       	pop	r24
 178:	7f 91       	pop	r23
 17a:	6f 91       	pop	r22
 17c:	5f 91       	pop	r21
 17e:	4f 91       	pop	r20
 180:	3f 91       	pop	r19
 182:	2f 91       	pop	r18
 184:	0f 90       	pop	r0
 186:	0f be       	out	0x3f, r0	; 63
 188:	0f 90       	pop	r0
 18a:	1f 90       	pop	r1
 18c:	18 95       	reti

0000018e <__vector_26>:
 18e:	1f 92       	push	r1
 190:	0f 92       	push	r0
 192:	0f b6       	in	r0, 0x3f	; 63
 194:	0f 92       	push	r0
 196:	11 24       	eor	r1, r1
 198:	8f 93       	push	r24
 19a:	9f 93       	push	r25
 19c:	8b b1       	in	r24, 0x0b	; 11
 19e:	90 e4       	ldi	r25, 0x40	; 64
 1a0:	89 27       	eor	r24, r25
 1a2:	8b b9       	out	0x0b, r24	; 11
 1a4:	81 e6       	ldi	r24, 0x61	; 97
 1a6:	80 93 ce 00 	sts	0x00CE, r24
 1aa:	8f e9       	ldi	r24, 0x9F	; 159
 1ac:	9f e0       	ldi	r25, 0x0F	; 15
 1ae:	01 97       	sbiw	r24, 0x01	; 1
 1b0:	f1 f7       	brne	.-4      	; 0x1ae <__vector_26+0x20>
 1b2:	00 c0       	rjmp	.+0      	; 0x1b4 <__vector_26+0x26>
 1b4:	00 00       	nop
 1b6:	9f 91       	pop	r25
 1b8:	8f 91       	pop	r24
 1ba:	0f 90       	pop	r0
 1bc:	0f be       	out	0x3f, r0	; 63
 1be:	0f 90       	pop	r0
 1c0:	1f 90       	pop	r1
 1c2:	18 95       	reti

000001c4 <__vector_default>:
 1c4:	1f 92       	push	r1
 1c6:	0f 92       	push	r0
 1c8:	0f b6       	in	r0, 0x3f	; 63
 1ca:	0f 92       	push	r0
 1cc:	11 24       	eor	r1, r1
 1ce:	90 e4       	ldi	r25, 0x40	; 64
 1d0:	8b b1       	in	r24, 0x0b	; 11
 1d2:	89 27       	eor	r24, r25
 1d4:	8b b9       	out	0x0b, r24	; 11
 1d6:	2f ef       	ldi	r18, 0xFF	; 255
 1d8:	31 ee       	ldi	r19, 0xE1	; 225
 1da:	44 e0       	ldi	r20, 0x04	; 4
 1dc:	21 50       	subi	r18, 0x01	; 1
 1de:	30 40       	sbci	r19, 0x00	; 0
 1e0:	40 40       	sbci	r20, 0x00	; 0
 1e2:	e1 f7       	brne	.-8      	; 0x1dc <__vector_default+0x18>
 1e4:	00 c0       	rjmp	.+0      	; 0x1e6 <__vector_default+0x22>
 1e6:	00 00       	nop
 1e8:	f3 cf       	rjmp	.-26     	; 0x1d0 <__vector_default+0xc>

000001ea <__vector_17>:
 1ea:	1f 92       	push	r1
 1ec:	0f 92       	push	r0
 1ee:	0f b6       	in	r0, 0x3f	; 63
 1f0:	0f 92       	push	r0
 1f2:	11 24       	eor	r1, r1
 1f4:	8f 93       	push	r24
 1f6:	9f 93       	push	r25
 1f8:	8b b1       	in	r24, 0x0b	; 11
 1fa:	90 e4       	ldi	r25, 0x40	; 64
 1fc:	89 27       	eor	r24, r25
 1fe:	8b b9       	out	0x0b, r24	; 11
 200:	80 91 1c 01 	lds	r24, 0x011C
 204:	80 95       	com	r24
 206:	80 93 1c 01 	sts	0x011C, r24
 20a:	80 91 1d 01 	lds	r24, 0x011D
 20e:	80 95       	com	r24
 210:	80 93 1d 01 	sts	0x011D, r24
 214:	80 91 14 01 	lds	r24, 0x0114
 218:	8f 5f       	subi	r24, 0xFF	; 255
 21a:	80 93 14 01 	sts	0x0114, r24
 21e:	8c 33       	cpi	r24, 0x3C	; 60
 220:	a8 f0       	brcs	.+42     	; 0x24c <__vector_17+0x62>
 222:	10 92 14 01 	sts	0x0114, r1
 226:	80 91 13 01 	lds	r24, 0x0113
 22a:	8f 5f       	subi	r24, 0xFF	; 255
 22c:	80 93 13 01 	sts	0x0113, r24
 230:	8c 33       	cpi	r24, 0x3C	; 60
 232:	60 f0       	brcs	.+24     	; 0x24c <__vector_17+0x62>
 234:	10 92 13 01 	sts	0x0113, r1
 238:	80 91 12 01 	lds	r24, 0x0112
 23c:	8f 5f       	subi	r24, 0xFF	; 255
 23e:	80 93 12 01 	sts	0x0112, r24
 242:	8d 30       	cpi	r24, 0x0D	; 13
 244:	18 f0       	brcs	.+6      	; 0x24c <__vector_17+0x62>
 246:	81 e0       	ldi	r24, 0x01	; 1
 248:	80 93 12 01 	sts	0x0112, r24
 24c:	10 92 85 00 	sts	0x0085, r1
 250:	10 92 84 00 	sts	0x0084, r1
 254:	9f 91       	pop	r25
 256:	8f 91       	pop	r24
 258:	0f 90       	pop	r0
 25a:	0f be       	out	0x3f, r0	; 63
 25c:	0f 90       	pop	r0
 25e:	1f 90       	pop	r1
 260:	18 95       	reti

00000262 <main>:
 262:	80 e8       	ldi	r24, 0x80	; 128
 264:	80 93 61 00 	sts	0x0061, r24
 268:	10 92 61 00 	sts	0x0061, r1
 26c:	80 e4       	ldi	r24, 0x40	; 64
 26e:	8a b9       	out	0x0a, r24	; 10
 270:	79 d0       	rcall	.+242    	; 0x364 <Setup_SPI>
 272:	30 d0       	rcall	.+96     	; 0x2d4 <Setup_USART>
 274:	37 df       	rcall	.-402    	; 0xe4 <Setup_Timer>
 276:	f7 d0       	rcall	.+494    	; 0x466 <Setup_twi>
 278:	8f ef       	ldi	r24, 0xFF	; 255
 27a:	93 ec       	ldi	r25, 0xC3	; 195
 27c:	a9 e0       	ldi	r26, 0x09	; 9
 27e:	81 50       	subi	r24, 0x01	; 1
 280:	90 40       	sbci	r25, 0x00	; 0
 282:	a0 40       	sbci	r26, 0x00	; 0
 284:	e1 f7       	brne	.-8      	; 0x27e <main+0x1c>
 286:	00 c0       	rjmp	.+0      	; 0x288 <main+0x26>
 288:	00 00       	nop
 28a:	5e 9a       	sbi	0x0b, 6	; 11
 28c:	80 e0       	ldi	r24, 0x00	; 0
 28e:	67 d0       	rcall	.+206    	; 0x35e <set_buff_location>
 290:	8f ef       	ldi	r24, 0xFF	; 255
 292:	53 d0       	rcall	.+166    	; 0x33a <PushData>
 294:	8b ec       	ldi	r24, 0xCB	; 203
 296:	51 d0       	rcall	.+162    	; 0x33a <PushData>
 298:	c7 e0       	ldi	r28, 0x07	; 7
 29a:	8c 2f       	mov	r24, r28
 29c:	4e d0       	rcall	.+156    	; 0x33a <PushData>
 29e:	c9 5f       	subi	r28, 0xF9	; 249
 2a0:	c7 3e       	cpi	r28, 0xE7	; 231
 2a2:	d9 f7       	brne	.-10     	; 0x29a <main+0x38>
 2a4:	8a eb       	ldi	r24, 0xBA	; 186
 2a6:	49 d0       	rcall	.+146    	; 0x33a <PushData>
 2a8:	78 94       	sei
 2aa:	8c e0       	ldi	r24, 0x0C	; 12
 2ac:	80 93 12 01 	sts	0x0112, r24
 2b0:	8b e0       	ldi	r24, 0x0B	; 11
 2b2:	80 93 13 01 	sts	0x0113, r24
 2b6:	29 df       	rcall	.-430    	; 0x10a <rtc_read>
 2b8:	82 e0       	ldi	r24, 0x02	; 2
 2ba:	91 e0       	ldi	r25, 0x01	; 1
 2bc:	68 e0       	ldi	r22, 0x08	; 8
 2be:	20 d0       	rcall	.+64     	; 0x300 <send_string_usart>
 2c0:	8f ef       	ldi	r24, 0xFF	; 255
 2c2:	93 ec       	ldi	r25, 0xC3	; 195
 2c4:	a9 e0       	ldi	r26, 0x09	; 9
 2c6:	81 50       	subi	r24, 0x01	; 1
 2c8:	90 40       	sbci	r25, 0x00	; 0
 2ca:	a0 40       	sbci	r26, 0x00	; 0
 2cc:	e1 f7       	brne	.-8      	; 0x2c6 <main+0x64>
 2ce:	00 c0       	rjmp	.+0      	; 0x2d0 <main+0x6e>
 2d0:	00 00       	nop
 2d2:	f1 cf       	rjmp	.-30     	; 0x2b6 <main+0x54>

000002d4 <Setup_USART>:
 2d4:	53 9a       	sbi	0x0a, 3	; 10
 2d6:	52 98       	cbi	0x0a, 2	; 10
 2d8:	88 e9       	ldi	r24, 0x98	; 152
 2da:	80 93 c9 00 	sts	0x00C9, r24
 2de:	86 e0       	ldi	r24, 0x06	; 6
 2e0:	80 93 ca 00 	sts	0x00CA, r24
 2e4:	80 e1       	ldi	r24, 0x10	; 16
 2e6:	90 e0       	ldi	r25, 0x00	; 0
 2e8:	90 93 cd 00 	sts	0x00CD, r25
 2ec:	80 93 cc 00 	sts	0x00CC, r24
 2f0:	08 95       	ret

000002f2 <send_byte_usart>:
 2f2:	90 91 c8 00 	lds	r25, 0x00C8
 2f6:	95 ff       	sbrs	r25, 5
 2f8:	fc cf       	rjmp	.-8      	; 0x2f2 <send_byte_usart>
 2fa:	80 93 ce 00 	sts	0x00CE, r24
 2fe:	08 95       	ret

00000300 <send_string_usart>:
 300:	ef 92       	push	r14
 302:	ff 92       	push	r15
 304:	1f 93       	push	r17
 306:	cf 93       	push	r28
 308:	df 93       	push	r29
 30a:	0f 92       	push	r0
 30c:	cd b7       	in	r28, 0x3d	; 61
 30e:	de b7       	in	r29, 0x3e	; 62
 310:	18 2f       	mov	r17, r24
 312:	e8 2e       	mov	r14, r24
 314:	f9 2e       	mov	r15, r25
 316:	06 c0       	rjmp	.+12     	; 0x324 <send_string_usart+0x24>
 318:	f7 01       	movw	r30, r14
 31a:	81 91       	ld	r24, Z+
 31c:	7f 01       	movw	r14, r30
 31e:	69 83       	std	Y+1, r22	; 0x01
 320:	e8 df       	rcall	.-48     	; 0x2f2 <send_byte_usart>
 322:	69 81       	ldd	r22, Y+1	; 0x01
 324:	8e 2d       	mov	r24, r14
 326:	81 1b       	sub	r24, r17
 328:	86 17       	cp	r24, r22
 32a:	b0 f3       	brcs	.-20     	; 0x318 <send_string_usart+0x18>
 32c:	0f 90       	pop	r0
 32e:	df 91       	pop	r29
 330:	cf 91       	pop	r28
 332:	1f 91       	pop	r17
 334:	ff 90       	pop	r15
 336:	ef 90       	pop	r14
 338:	08 95       	ret

0000033a <PushData>:
 33a:	90 91 00 01 	lds	r25, 0x0100
 33e:	92 33       	cpi	r25, 0x32	; 50
 340:	10 f0       	brcs	.+4      	; 0x346 <PushData+0xc>
 342:	10 92 00 01 	sts	0x0100, r1
 346:	e0 91 00 01 	lds	r30, 0x0100
 34a:	f0 e0       	ldi	r31, 0x00	; 0
 34c:	e1 5d       	subi	r30, 0xD1	; 209
 34e:	fe 4f       	sbci	r31, 0xFE	; 254
 350:	80 83       	st	Z, r24
 352:	80 91 00 01 	lds	r24, 0x0100
 356:	8f 5f       	subi	r24, 0xFF	; 255
 358:	80 93 00 01 	sts	0x0100, r24
 35c:	08 95       	ret

0000035e <set_buff_location>:
 35e:	80 93 00 01 	sts	0x0100, r24
 362:	08 95       	ret

00000364 <Setup_SPI>:
 364:	84 b1       	in	r24, 0x04	; 4
 366:	87 60       	ori	r24, 0x07	; 7
 368:	84 b9       	out	0x04, r24	; 4
 36a:	23 98       	cbi	0x04, 3	; 4
 36c:	81 e5       	ldi	r24, 0x51	; 81
 36e:	8c bd       	out	0x2c, r24	; 44
 370:	08 95       	ret

00000372 <__vector_36>:
 372:	1f 92       	push	r1
 374:	0f 92       	push	r0
 376:	0f b6       	in	r0, 0x3f	; 63
 378:	0f 92       	push	r0
 37a:	11 24       	eor	r1, r1
 37c:	2f 93       	push	r18
 37e:	3f 93       	push	r19
 380:	8f 93       	push	r24
 382:	9f 93       	push	r25
 384:	ef 93       	push	r30
 386:	ff 93       	push	r31
 388:	80 91 b9 00 	lds	r24, 0x00B9
 38c:	88 32       	cpi	r24, 0x28	; 40
 38e:	f9 f0       	breq	.+62     	; 0x3ce <__vector_36+0x5c>
 390:	89 32       	cpi	r24, 0x29	; 41
 392:	40 f4       	brcc	.+16     	; 0x3a4 <__vector_36+0x32>
 394:	80 31       	cpi	r24, 0x10	; 16
 396:	a1 f0       	breq	.+40     	; 0x3c0 <__vector_36+0x4e>
 398:	88 31       	cpi	r24, 0x18	; 24
 39a:	c9 f0       	breq	.+50     	; 0x3ce <__vector_36+0x5c>
 39c:	88 30       	cpi	r24, 0x08	; 8
 39e:	09 f0       	breq	.+2      	; 0x3a2 <__vector_36+0x30>
 3a0:	54 c0       	rjmp	.+168    	; 0x44a <__vector_36+0xd8>
 3a2:	0e c0       	rjmp	.+28     	; 0x3c0 <__vector_36+0x4e>
 3a4:	80 34       	cpi	r24, 0x40	; 64
 3a6:	a1 f1       	breq	.+104    	; 0x410 <__vector_36+0x9e>
 3a8:	81 34       	cpi	r24, 0x41	; 65
 3aa:	20 f4       	brcc	.+8      	; 0x3b4 <__vector_36+0x42>
 3ac:	88 33       	cpi	r24, 0x38	; 56
 3ae:	09 f0       	breq	.+2      	; 0x3b2 <__vector_36+0x40>
 3b0:	4c c0       	rjmp	.+152    	; 0x44a <__vector_36+0xd8>
 3b2:	49 c0       	rjmp	.+146    	; 0x446 <__vector_36+0xd4>
 3b4:	80 35       	cpi	r24, 0x50	; 80
 3b6:	f1 f0       	breq	.+60     	; 0x3f4 <__vector_36+0x82>
 3b8:	88 35       	cpi	r24, 0x58	; 88
 3ba:	09 f0       	breq	.+2      	; 0x3be <__vector_36+0x4c>
 3bc:	46 c0       	rjmp	.+140    	; 0x44a <__vector_36+0xd8>
 3be:	36 c0       	rjmp	.+108    	; 0x42c <__vector_36+0xba>
 3c0:	80 91 61 01 	lds	r24, 0x0161
 3c4:	80 93 bb 00 	sts	0x00BB, r24
 3c8:	10 92 01 01 	sts	0x0101, r1
 3cc:	2d c0       	rjmp	.+90     	; 0x428 <__vector_36+0xb6>
 3ce:	80 91 01 01 	lds	r24, 0x0101
 3d2:	90 91 64 01 	lds	r25, 0x0164
 3d6:	89 17       	cp	r24, r25
 3d8:	a0 f5       	brcc	.+104    	; 0x442 <__vector_36+0xd0>
 3da:	e0 91 62 01 	lds	r30, 0x0162
 3de:	f0 91 63 01 	lds	r31, 0x0163
 3e2:	e8 0f       	add	r30, r24
 3e4:	f1 1d       	adc	r31, r1
 3e6:	90 81       	ld	r25, Z
 3e8:	90 93 bb 00 	sts	0x00BB, r25
 3ec:	8f 5f       	subi	r24, 0xFF	; 255
 3ee:	80 93 01 01 	sts	0x0101, r24
 3f2:	1a c0       	rjmp	.+52     	; 0x428 <__vector_36+0xb6>
 3f4:	80 91 01 01 	lds	r24, 0x0101
 3f8:	e0 91 62 01 	lds	r30, 0x0162
 3fc:	f0 91 63 01 	lds	r31, 0x0163
 400:	e8 0f       	add	r30, r24
 402:	f1 1d       	adc	r31, r1
 404:	90 91 bb 00 	lds	r25, 0x00BB
 408:	90 83       	st	Z, r25
 40a:	8f 5f       	subi	r24, 0xFF	; 255
 40c:	80 93 01 01 	sts	0x0101, r24
 410:	80 91 64 01 	lds	r24, 0x0164
 414:	20 91 01 01 	lds	r18, 0x0101
 418:	30 e0       	ldi	r19, 0x00	; 0
 41a:	90 e0       	ldi	r25, 0x00	; 0
 41c:	01 97       	sbiw	r24, 0x01	; 1
 41e:	28 17       	cp	r18, r24
 420:	39 07       	cpc	r19, r25
 422:	14 f4       	brge	.+4      	; 0x428 <__vector_36+0xb6>
 424:	85 ec       	ldi	r24, 0xC5	; 197
 426:	12 c0       	rjmp	.+36     	; 0x44c <__vector_36+0xda>
 428:	85 e8       	ldi	r24, 0x85	; 133
 42a:	10 c0       	rjmp	.+32     	; 0x44c <__vector_36+0xda>
 42c:	80 91 01 01 	lds	r24, 0x0101
 430:	e0 91 62 01 	lds	r30, 0x0162
 434:	f0 91 63 01 	lds	r31, 0x0163
 438:	e8 0f       	add	r30, r24
 43a:	f1 1d       	adc	r31, r1
 43c:	80 91 bb 00 	lds	r24, 0x00BB
 440:	80 83       	st	Z, r24
 442:	84 e9       	ldi	r24, 0x94	; 148
 444:	03 c0       	rjmp	.+6      	; 0x44c <__vector_36+0xda>
 446:	85 ea       	ldi	r24, 0xA5	; 165
 448:	01 c0       	rjmp	.+2      	; 0x44c <__vector_36+0xda>
 44a:	84 e0       	ldi	r24, 0x04	; 4
 44c:	80 93 bc 00 	sts	0x00BC, r24
 450:	ff 91       	pop	r31
 452:	ef 91       	pop	r30
 454:	9f 91       	pop	r25
 456:	8f 91       	pop	r24
 458:	3f 91       	pop	r19
 45a:	2f 91       	pop	r18
 45c:	0f 90       	pop	r0
 45e:	0f be       	out	0x3f, r0	; 63
 460:	0f 90       	pop	r0
 462:	1f 90       	pop	r1
 464:	18 95       	reti

00000466 <Setup_twi>:
 466:	8f ef       	ldi	r24, 0xFF	; 255
 468:	80 93 bb 00 	sts	0x00BB, r24
 46c:	10 92 b9 00 	sts	0x00B9, r1
 470:	8c e0       	ldi	r24, 0x0C	; 12
 472:	80 93 b8 00 	sts	0x00B8, r24
 476:	08 95       	ret

00000478 <twi_write>:
 478:	90 91 bc 00 	lds	r25, 0x00BC
 47c:	90 fd       	sbrc	r25, 0
 47e:	fc cf       	rjmp	.-8      	; 0x478 <twi_write>
 480:	8e 7f       	andi	r24, 0xFE	; 254
 482:	80 93 61 01 	sts	0x0161, r24
 486:	70 93 63 01 	sts	0x0163, r23
 48a:	60 93 62 01 	sts	0x0162, r22
 48e:	40 93 64 01 	sts	0x0164, r20
 492:	85 ea       	ldi	r24, 0xA5	; 165
 494:	80 93 bc 00 	sts	0x00BC, r24
 498:	08 95       	ret

0000049a <twi_read>:
 49a:	90 91 bc 00 	lds	r25, 0x00BC
 49e:	90 fd       	sbrc	r25, 0
 4a0:	fc cf       	rjmp	.-8      	; 0x49a <twi_read>
 4a2:	81 60       	ori	r24, 0x01	; 1
 4a4:	80 93 61 01 	sts	0x0161, r24
 4a8:	70 93 63 01 	sts	0x0163, r23
 4ac:	60 93 62 01 	sts	0x0162, r22
 4b0:	40 93 64 01 	sts	0x0164, r20
 4b4:	85 ea       	ldi	r24, 0xA5	; 165
 4b6:	80 93 bc 00 	sts	0x00BC, r24
 4ba:	08 95       	ret

000004bc <_exit>:
 4bc:	f8 94       	cli

000004be <__stop_program>:
 4be:	ff cf       	rjmp	.-2      	; 0x4be <__stop_program>
